(dp0
S'dungeon'
p1
(dp2
S'directions'
p3
(dp4
S'south'
p5
S'dragonCell'
p6
ssS'objects'
p7
(lp8
(dp9
S'chest'
p10
(dp11
S'message'
p12
S'The chest is too heavy to lift.'
p13
sS'description'
p14
S'You see a chest on the floor.'
p15
sS'take'
p16
I00
sS'openObject'
p17
(dp18
S'onOpen'
p19
(dp20
S'message'
p21
S'You open the chest and find a key inside.'
p22
sS'objectAdd'
p23
(dp24
S'key'
p25
(dp26
S'message'
p27
S'You have a key. But you do not know what it opens.'
p28
sS'take'
p29
I01
sS'description'
p30
S'A single key lies inside the chest on a velvet cloth.'
p31
ssssS'canOpen'
p32
I01
sS'forOpen'
p33
(lp34
sS'alreadyOpen'
p35
(dp36
S'message'
p37
S'The chest is already open.'
p38
sS'opened'
p39
I00
ssssasS'description'
p40
S'You enter a small dungeon where you see ancient runes scrawled across the walls.'
p41
ssS'end'
p42
(dp43
S'description'
p44
S'You cross the river and find yourself in a huge forest. It looks vaguely familiar. Suddenly a group of tribemen come out and greet you. Oddly enough, you understand their tongue, and they treat you as one of their own not feeling threatened by you at all. It hits you then; you have reached home.'
p45
ssS'garden'
p46
(dp47
S'directions'
p48
(dp49
S'north'
p50
S'gazebo'
p51
sS'south'
p52
S'portcullis'
p53
ssS'objects'
p54
(lp55
(dp56
S'flower'
p57
(dp58
S'message'
p59
S'The sweet scent of the flower fills your senses.'
p60
sS'take'
p61
I01
ssasS'description'
p62
S'Wild flowers with exotic fragrances bloom about you and the light of day makes for a beautiful scene in the garden. Behind you, you see the castle. There is a gazebo up north.'
p63
ssS'dragonCell'
p64
(dp65
S'directions'
p66
(dp67
S'west'
p68
S'start'
p69
sS'north'
p70
S'dungeon'
p71
sS'south'
p72
S'weaponsRoom'
p73
ssS'fighters'
p74
(lp75
(dp76
S'dragon'
p77
(dp78
S'killable'
p79
I01
sS'onKill'
p80
(dp81
S'message'
p82
S'The passage way leading to the east opens up.'
p83
sS'directionAdd'
p84
(dp85
S'east'
p86
S'portcullis'
p87
sssS'alreadyKilled'
p88
(dp89
S'message'
p90
S'The dragon is already dead. Why must you be such a brute?'
p91
sS'killed'
p92
I00
ssS'altDescription'
p93
S"You see the giant dragon you had slain with it's entrails strewn across the stone floor. There is a passage that leads you east."
p94
sS'mustUse'
p95
(lp96
S'sword'
p97
aS'spear'
p98
aS'staff'
p99
assasS'objects'
p100
(lp101
(dp102
S'dragon'
p103
(dp104
S'message'
p105
S'You cannot be serious.'
p106
sS'take'
p107
I00
sS'description'
p108
S'There is a giant dragon that lay sleeping in front of it. It seems to be guarding a passage way headed east.'
p109
ssa(dp110
S'gate'
p111
(dp112
S'message'
p113
S"You can't take the gate."
p114
sS'take'
p115
I00
sS'openObject'
p116
(dp117
S'onOpen'
p118
(dp119
S'message'
p120
S'The gate opens, you see daylight coming through from behind it.'
p121
sS'directionAdd'
p122
(dp123
S'south'
p124
S'weaponsRoom'
p125
sssS'canOpen'
p126
I01
sS'forOpen'
p127
(lp128
S'key'
p129
asS'alreadyOpen'
p130
(dp131
S'message'
p132
S'The gate is already open.'
p133
sS'opened'
p134
I00
ssssasS'description'
p135
S'You see a staircase leading into the darkness in the north and a steel gate to the south.'
p136
ssS'start'
p137
(dp138
S'directions'
p139
(dp140
S'east'
p141
S'dragonCell'
p142
ssS'objects'
p143
(lp144
(dp145
S'candle'
p146
(dp147
S'message'
p148
S"It's almost out, and is stuck fast to the ground."
p149
sS'take'
p150
I00
sS'description'
p151
S'The only light source is a small candle burning in the corner.'
p152
ssa(dp153
S'bone'
p154
(dp155
S'message'
p156
S'You now have a bone.'
p157
sS'take'
p158
I01
sS'description'
p159
S'You see a pile of bones in front of you.'
p160
ssa(dp161
S'door'
p162
(dp163
S'message'
p164
S"You can't take the door."
p165
sS'take'
p166
I00
sS'openObject'
p167
(dp168
S'onOpen'
p169
(dp170
S'message'
p171
S'The door opens revealing a path towards the east.'
p172
ssS'canOpen'
p173
I01
sS'forOpen'
p174
(lp175
sS'alreadyOpen'
p176
(dp177
S'message'
p178
S'The door is already open.'
p179
sS'opened'
p180
I00
ssssasS'description'
p181
S"You find yourself in a dark empty crypt. There is an eerie feel to this place, and you do not feel uncomfortable at all. You need to get home. There is a door to the east; it's unlocked."
p182
ssS'portcullis'
p183
(dp184
S'directions'
p185
(dp186
S'west'
p187
S'dragonCell'
p188
sS'south'
p189
S'river'
p190
ssS'fighters'
p191
(lp192
(dp193
S'troll'
p194
(dp195
S'killable'
p196
I01
sS'onKill'
p197
(dp198
S'message'
p199
S'It seems you can now walk about in the garden freely.'
p200
sS'directionAdd'
p201
(dp202
S'north'
p203
S'garden'
p204
sssS'alreadyKilled'
p205
(dp206
S'message'
p207
S'The troll lay dead in front of you. How much more do you want to kill it?'
p208
sS'killed'
p209
I00
ssS'altDescription'
p210
S'The troll lays dead on the grass. His tongue sticks out of his mouth making for an extremely unpleasant sight. You see a huge open space with a garden to the north.'
p211
sS'mustUse'
p212
(lp213
S'spear'
p214
aS'staff'
p215
assasS'objects'
p216
(lp217
(dp218
S'troll'
p219
(dp220
S'message'
p221
S'How were you even planning on doing that? And more importantly, why?'
p222
sS'take'
p223
I00
sS'description'
p224
S"A troll is wandering in the garden outside. It swings it's massive club in the air every now and then."
p225
ssasS'description'
p226
S'A portcullis is drawn up. You are standing just outside a sprawling castle with dark walls. To your south there is a fast flowing stream.'
p227
ssS'weaponsRoom'
p228
(dp229
S'directions'
p230
(dp231
S'north'
p232
S'dragonCell'
p233
ssS'prerequisites'
p234
(lp235
(dp236
S'key'
p237
(dp238
S'problem'
p239
S'The gate is locked.'
p240
sS'solution'
p241
S'You unlock the gate and enter.'
p242
ssasS'objects'
p243
(lp244
(dp245
S'window'
p246
(dp247
S'message'
p248
S'Be serious.'
p249
sS'take'
p250
I00
ssa(dp251
S'sword'
p252
(dp253
S'message'
p254
S'Good choice. You now have a sword.'
p255
sS'take'
p256
I01
ssa(dp257
S'spear'
p258
(dp259
S'message'
p260
S'Great choice! You now have a spear.'
p261
sS'take'
p262
I01
ssa(dp263
S'knife'
p264
(dp265
S'message'
p266
S'You now have a knife.'
p267
sS'take'
p268
I01
ssa(dp269
S'hammer'
p270
(dp271
S'message'
p272
S'You now have a hammer.'
p273
sS'take'
p274
I01
ssa(dp275
S'staff'
p276
(dp277
S'message'
p278
S'Excellent choice. You now have a staff.'
p279
sS'take'
p280
I01
ssasS'description'
p281
S'You enter a room full of weapons. You see swords, knives, spears, staffs, and hammers displayed all around you. Large windows illuminate the room with the daylight outside.'
p282
ssS'river'
p283
(dp284
S'directions'
p285
(dp286
S'east'
p287
S'end'
p288
ssS'prerequisites'
p289
(lp290
(dp291
S'torch'
p292
(dp293
S'problem'
p294
S"The stream says to you, 'It eats many things; it fears me but not the wind. But give me enough and I will subside momentarily.' You cannot get past the stream."
p295
sS'solution'
p296
S'The water in the river bends and parts. You see how deep the river bed is without the water there.'
p297
ssasS'description'
p298
S"You are at the river. It's flowing north. On the other side of the river in the east you see a deep, dark forest."
p299
ssS'gazebo'
p300
(dp301
S'directions'
p302
(dp303
S'south'
p304
S'garden'
p305
ssS'objects'
p306
(lp307
(dp308
S'torch'
p309
(dp310
S'message'
p311
S'You pick up the torch and carefully hold on it.'
p312
sS'take'
p313
I01
sS'description'
p314
S'A flaming torch lies on the edge of the gazebo. The fire shines a peculiar bright red in the sunlight.'
p315
ssasS'description'
p316
S'You are at a gazebo. You see snow-festooned mountain peaks that extend and meet the horizon in the north. Below you there is nothing but the deepest valley you have ever seen.'
p317
ss.