(dp0
S'dungeon'
p1
(dp2
S'directions'
p3
(dp4
S'south'
p5
S'dragonCell'
p6
ssS'objects'
p7
(lp8
(dp9
S'chest'
p10
(dp11
S'message'
p12
S'The chest is too heavy to lift.'
p13
sS'description'
p14
S'You see a chest on the floor.'
p15
sS'take'
p16
I00
sS'openObject'
p17
(dp18
S'onOpen'
p19
(dp20
S'message'
p21
S'You open the chest and find a key inside.'
p22
sS'objectAdd'
p23
(dp24
S'key'
p25
(dp26
S'message'
p27
S'You have a key. But you do not know what it opens.'
p28
sS'take'
p29
I01
sS'description'
p30
S'A single key lies inside the chest on a velvet cloth.'
p31
ssssS'canOpen'
p32
I01
sS'forOpen'
p33
(lp34
sS'alreadyOpen'
p35
(dp36
S'message'
p37
S'The chest is already open.'
p38
sS'opened'
p39
I00
ssssasS'description'
p40
S'You enter a small dungeon where you see ancient runes scrawled across the walls.'
p41
ssS'end'
p42
(dp43
S'description'
p44
S'You cross the river and find yourself in a huge forest. It looks vaguely familiar. Suddenly a group of tribemen come out and greet you. Oddly enough, you understand their tongue, and they treat you as one of their own not feeling threatened by you at all. It hits you then; you have reached home.'
p45
ssS'garden'
p46
(dp47
S'directions'
p48
(dp49
S'north'
p50
S'gazebo'
p51
sS'south'
p52
S'portcullis'
p53
ssS'objects'
p54
(lp55
(dp56
S'flower'
p57
(dp58
S'message'
p59
S'The sweet scent of the flower fills your senses.'
p60
sS'take'
p61
I01
ssasS'description'
p62
S'Wild flowers with exotic fragrances bloom about you and the light of day makes for a beautiful scene in the garden. Behind you, you see the castle. There is a gazebo up north.'
p63
ssS'dragonCell'
p64
(dp65
S'directions'
p66
(dp67
S'west'
p68
S'start'
p69
sS'north'
p70
S'dungeon'
p71
sS'south'
p72
S'weaponsRoom'
p73
ssS'fighters'
p74
(lp75
(dp76
S'dragon'
p77
(dp78
S'killable'
p79
I01
sS'onKill'
p80
(dp81
S'message'
p82
S'The passage way leading to the east opens up.'
p83
sS'directionAdd'
p84
(dp85
S'east'
p86
S'portcullis'
p87
sssS'alreadyKilled'
p88
(dp89
S'message'
p90
S'The dragon is already dead.'
p91
sS'killed'
p92
I00
ssS'altDescription'
p93
S"You see the giant dragon you had slain with it's entrails strewn across the stone floor. There is a passage that leads you east."
p94
sS'mustUse'
p95
(lp96
S'sword'
p97
aS'spear'
p98
aS'staff'
p99
assasS'objects'
p100
(lp101
(dp102
S'dragon'
p103
(dp104
S'message'
p105
S'You cannot be serious.'
p106
sS'take'
p107
I00
sS'description'
p108
S'There is a giant dragon that lay sleeping in front of it. It seems to be guarding a passage way headed east.'
p109
ssa(dp110
S'gate'
p111
(dp112
S'message'
p113
S"You can't take the gate."
p114
sS'take'
p115
I00
sS'openObject'
p116
(dp117
S'onOpen'
p118
(dp119
S'message'
p120
S'The gate opens, you see daylight coming through from behind it.'
p121
sS'directionAdd'
p122
(dp123
S'south'
p124
S'weaponsRoom'
p125
sssS'canOpen'
p126
I01
sS'forOpen'
p127
(lp128
S'key'
p129
asS'alreadyOpen'
p130
(dp131
S'message'
p132
S'The gate is already open.'
p133
sS'opened'
p134
I00
ssssasS'description'
p135
S'You see a staircase leading into the darkness in the north and a steel gate to the south.'
p136
ssS'start'
p137
(dp138
S'directions'
p139
(dp140
S'east'
p141
S'dragonCell'
p142
ssS'objects'
p143
(lp144
(dp145
S'candle'
p146
(dp147
S'message'
p148
S"It's almost out, and is stuck fast to the ground."
p149
sS'take'
p150
I00
sS'description'
p151
S'The only light source is a small candle burning in the corner.'
p152
ssa(dp153
S'bone'
p154
(dp155
S'message'
p156
S'You now have a bone.'
p157
sS'take'
p158
I01
sS'description'
p159
S'You see a pile of bones in front of you.'
p160
ssasS'description'
p161
S"You find yourself in a dark empty crypt. There is an eerie feel to this place, and you do not feel uncomfortable at all. You need to get home. There is a door to the east; it's unlocked."
p162
ssS'portcullis'
p163
(dp164
S'directions'
p165
(dp166
S'west'
p167
S'dragonCell'
p168
sS'south'
p169
S'river'
p170
ssS'fighters'
p171
(lp172
(dp173
S'troll'
p174
(dp175
S'killable'
p176
I01
sS'onKill'
p177
(dp178
S'message'
p179
S'It seems you can now walk about in the garden freely.'
p180
sS'directionAdd'
p181
(dp182
S'north'
p183
S'garden'
p184
sssS'alreadyKilled'
p185
(dp186
S'message'
p187
S'The troll lay dead in front of you. How much more do you want to kill it?'
p188
sS'killed'
p189
I00
ssS'altDescription'
p190
S'The troll lays dead on the grass. His tongue sticks out of his mouth making for an extremely unpleasant sight. You see a huge open space with a garden to the north.'
p191
sS'mustUse'
p192
(lp193
S'spear'
p194
aS'staff'
p195
assasS'objects'
p196
(lp197
(dp198
S'troll'
p199
(dp200
S'message'
p201
S'How were you even planning on doing that? And more importantly, why?'
p202
sS'take'
p203
I00
sS'description'
p204
S"A troll is wandering in the garden outside. It swings it's massive club in the air every now and then."
p205
ssasS'description'
p206
S'A portcullis is drawn up. You are standing just outside a sprawling castle with dark walls. To your south there is a fast flowing stream.'
p207
ssS'weaponsRoom'
p208
(dp209
S'directions'
p210
(dp211
S'north'
p212
S'dragonCell'
p213
ssS'prerequisites'
p214
(lp215
(dp216
S'key'
p217
(dp218
S'problem'
p219
S'The gate is locked.'
p220
sS'solution'
p221
S'You unlock the gate and enter.'
p222
ssasS'objects'
p223
(lp224
(dp225
S'sword'
p226
(dp227
S'message'
p228
S'Good choice. You now have a sword.'
p229
sS'take'
p230
I01
ssa(dp231
S'spear'
p232
(dp233
S'message'
p234
S'Great choice! You now have a spear.'
p235
sS'take'
p236
I01
ssa(dp237
S'knife'
p238
(dp239
S'message'
p240
S'You now have a knife.'
p241
sS'take'
p242
I01
ssa(dp243
S'hammer'
p244
(dp245
S'message'
p246
S'You now have a hammer.'
p247
sS'take'
p248
I01
ssa(dp249
S'staff'
p250
(dp251
S'message'
p252
S'Excellent choice. You now have a staff.'
p253
sS'take'
p254
I01
ssasS'description'
p255
S'You enter a room full of weapons. You see swords, knives, spears, staffs, and hammers displayed all around you. Large windows illuminate the room with the daylight outside.'
p256
ssS'river'
p257
(dp258
S'directions'
p259
(dp260
S'east'
p261
S'end'
p262
ssS'prerequisites'
p263
(lp264
(dp265
S'torch'
p266
(dp267
S'problem'
p268
S"The stream says to you, 'It eats many things; it fears me but not the wind. But give me enough and I will subside momentarily.' You cannot get past the stream."
p269
sS'solution'
p270
S'The water in the river bends and parts. You see how deep the river bed is without the water there.'
p271
ssasS'description'
p272
S"You are at the river. It's flowing north. On the other side of the river in the east you see a deep, dark forest."
p273
ssS'gazebo'
p274
(dp275
S'directions'
p276
(dp277
S'south'
p278
S'garden'
p279
ssS'objects'
p280
(lp281
(dp282
S'torch'
p283
(dp284
S'message'
p285
S'You pick up the torch and carefully hold on it.'
p286
sS'take'
p287
I01
sS'description'
p288
S'A flaming torch lies on the edge of the gazebo. The fire shines bright red in the sunlight.'
p289
ssasS'description'
p290
S'You are at a gazebo. You see snow-festooned mountain peaks that extend and meet the horizon in the north. Below you there is nothing but the deepest valley you have ever seen.'
p291
ss.